; Function Attrs: nofree norecurse nosync nounwind memory(readwrite, inaccessiblemem: none) uwtable
define i32 @ff_vvc_sao_band_position_decode(ptr noundef readonly captures(none) %0) local_unnamed_addr #3 {
  %2 = getelementptr inbounds nuw i8, ptr %0, i64 4580560
  %3 = load ptr, ptr %2, align 16, !tbaa !67
  %4 = getelementptr inbounds nuw i8, ptr %3, i64 2672
  %5 = getelementptr inbounds nuw i8, ptr %3, i64 2688
  %6 = getelementptr inbounds nuw i8, ptr %3, i64 2696
  %7 = getelementptr inbounds nuw i8, ptr %3, i64 2676
  %8 = load i32, ptr %7, align 4, !tbaa !100
  %9 = shl i32 %8, 17
  %.promoted.i = load i32, ptr %4, align 8, !tbaa !70
  br label %10

10:                                               ; preds = %get_cabac_bypass.exit.i, %1
  %11 = phi i32 [ %.promoted.i, %1 ], [ %35, %get_cabac_bypass.exit.i ]
  %.07.i = phi i32 [ 0, %1 ], [ %37, %get_cabac_bypass.exit.i ]
  %.056.i = phi i32 [ 0, %1 ], [ %36, %get_cabac_bypass.exit.i ]
  %12 = shl i32 %.056.i, 1
  %13 = shl nsw i32 %11, 1
  store i32 %13, ptr %4, align 8, !tbaa !70
  %14 = and i32 %11, 32767
  %.not.i.i = icmp eq i32 %14, 0
  br i1 %.not.i.i, label %15, label %refill.exit.i.i

15:                                               ; preds = %10
  %16 = load ptr, ptr %5, align 8, !tbaa !68
  %17 = load i8, ptr %16, align 1, !tbaa !97
  %18 = zext i8 %17 to i32
  %19 = shl nuw nsw i32 %18, 9
  %20 = getelementptr inbounds nuw i8, ptr %16, i64 1
  %21 = load i8, ptr %20, align 1, !tbaa !97
  %22 = zext i8 %21 to i32
  %23 = shl nuw nsw i32 %22, 1
  %24 = or disjoint i32 %23, %19
  %25 = add i32 %13, -65535
  %26 = add i32 %25, %24
  store i32 %26, ptr %4, align 8, !tbaa !70
  %27 = load ptr, ptr %6, align 8, !tbaa !71
  %28 = icmp ult ptr %16, %27
  br i1 %28, label %29, label %refill.exit.i.i

29:                                               ; preds = %15
  %30 = getelementptr inbounds nuw i8, ptr %16, i64 2
  store ptr %30, ptr %5, align 8, !tbaa !68
  br label %refill.exit.i.i

refill.exit.i.i:                                  ; preds = %29, %15, %10
  %31 = phi i32 [ %26, %29 ], [ %26, %15 ], [ %13, %10 ]
  %32 = icmp slt i32 %31, %9
  br i1 %32, label %get_cabac_bypass.exit.i, label %33

33:                                               ; preds = %refill.exit.i.i
  %34 = sub nsw i32 %31, %9
  store i32 %34, ptr %4, align 8, !tbaa !70
  br label %get_cabac_bypass.exit.i

get_cabac_bypass.exit.i:                          ; preds = %33, %refill.exit.i.i
  %35 = phi i32 [ %34, %33 ], [ %31, %refill.exit.i.i ]
  %.0.i.i = phi i32 [ 1, %33 ], [ 0, %refill.exit.i.i ]
  %36 = or disjoint i32 %.0.i.i, %12
  %37 = add nuw nsw i32 %.07.i, 1
  %exitcond.not.i = icmp eq i32 %37, 5
  br i1 %exitcond.not.i, label %fixed_length_decode.exit, label %10, !llvm.loop !101

fixed_length_decode.exit:                         ; preds = %get_cabac_bypass.exit.i
  ret i32 %36
}